target datalayout = "e-m:e-p270:32:32-p271:32:32-p272:64:64-i64:64-i128:128-f80:128-n8:16:32:64-S128"
target triple = "x86_64-pc-linux-gnu"

%struct.__sigset_t = type { [16 x i64] }
%struct.sigaction = type { %union.anon.6, %struct.__sigset_t, i32, ptr }
%union.anon.6 = type { ptr }

; Function Attrs: nounwind uwtable
define internal void @reset_signal_handlers(ptr noundef %0) #0 {
  %2 = alloca ptr, align 8
  %3 = alloca %struct.sigaction, align 8
  %4 = alloca i32, align 4
  %5 = alloca i32, align 4
  %6 = alloca %struct.sigaction, align 8
  %7 = alloca ptr, align 8
  store ptr %0, ptr %2, align 8, !tbaa !38
  call void @llvm.lifetime.start.p0(i64 152, ptr %3) #13
  call void @llvm.memset.p0.i64(ptr align 8 %3, i8 0, i64 152, i1 false)
  call void @llvm.lifetime.start.p0(i64 4, ptr %4) #13
  store i32 1, ptr %4, align 4, !tbaa !12
  br label %8

8:                                                ; preds = %56, %1
  %9 = load i32, ptr %4, align 4, !tbaa !12
  %10 = icmp slt i32 %9, 65
  br i1 %10, label %12, label %11

11:                                               ; preds = %8
  store i32 2, ptr %5, align 4
  call void @llvm.lifetime.end.p0(i64 4, ptr %4) #13
  br label %59

12:                                               ; preds = %8
  %13 = load i32, ptr %4, align 4, !tbaa !12
  %14 = icmp eq i32 %13, 9
  br i1 %14, label %18, label %15

15:                                               ; preds = %12
  %16 = load i32, ptr %4, align 4, !tbaa !12
  %17 = icmp eq i32 %16, 19
  br i1 %17, label %18, label %19

18:                                               ; preds = %15, %12
  br label %56

19:                                               ; preds = %15
  %20 = load ptr, ptr %2, align 8, !tbaa !38
  %21 = load i32, ptr %4, align 4, !tbaa !12
  %22 = call i32 @sigismember(ptr noundef %20, i32 noundef %21) #13
  %23 = icmp eq i32 %22, 1
  br i1 %23, label %24, label %25

24:                                               ; preds = %19
  br label %56

25:                                               ; preds = %19
  call void @llvm.lifetime.start.p0(i64 152, ptr %6) #13
  %26 = load i32, ptr %4, align 4, !tbaa !12
  %27 = call i32 @sigaction(i32 noundef %26, ptr noundef null, ptr noundef %6) #13
  %28 = icmp eq i32 %27, -1
  br i1 %28, label %29, label %30

29:                                               ; preds = %25
  store i32 4, ptr %5, align 4
  br label %53

30:                                               ; preds = %25
  call void @llvm.lifetime.start.p0(i64 8, ptr %7) #13
  %31 = getelementptr inbounds nuw %struct.sigaction, ptr %6, i32 0, i32 2
  %32 = load i32, ptr %31, align 8, !tbaa !58
  %33 = and i32 %32, 4
  %34 = icmp ne i32 %33, 0
  br i1 %34, label %35, label %38

35:                                               ; preds = %30
  %36 = getelementptr inbounds nuw %struct.sigaction, ptr %6, i32 0, i32 0
  %37 = load ptr, ptr %36, align 8, !tbaa !50
  br label %41

38:                                               ; preds = %30
  %39 = getelementptr inbounds nuw %struct.sigaction, ptr %6, i32 0, i32 0
  %40 = load ptr, ptr %39, align 8, !tbaa !50
  br label %41

41:                                               ; preds = %38, %35
  %42 = phi ptr [ %37, %35 ], [ %40, %38 ]
  store ptr %42, ptr %7, align 8, !tbaa !38
  %43 = load ptr, ptr %7, align 8, !tbaa !38
  %44 = icmp eq ptr %43, inttoptr (i64 1 to ptr)
  br i1 %44, label %48, label %45

45:                                               ; preds = %41
  %46 = load ptr, ptr %7, align 8, !tbaa !38
  %47 = icmp eq ptr %46, null
  br i1 %47, label %48, label %49

48:                                               ; preds = %45, %41
  store i32 4, ptr %5, align 4
  br label %52

49:                                               ; preds = %45
  %50 = load i32, ptr %4, align 4, !tbaa !12
  %51 = call i32 @sigaction(i32 noundef %50, ptr noundef %3, ptr noundef null) #13
  store i32 0, ptr %5, align 4
  br label %52

52:                                               ; preds = %49, %48
  call void @llvm.lifetime.end.p0(i64 8, ptr %7) #13
  br label %53

53:                                               ; preds = %52, %29
  call void @llvm.lifetime.end.p0(i64 152, ptr %6) #13
  %54 = load i32, ptr %5, align 4
  switch i32 %54, label %60 [
    i32 0, label %55
    i32 4, label %56
  ]

55:                                               ; preds = %53
  br label %56

56:                                               ; preds = %55, %53, %24, %18
  %57 = load i32, ptr %4, align 4, !tbaa !12
  %58 = add i32 %57, 1
  store i32 %58, ptr %4, align 4, !tbaa !12
  br label %8, !llvm.loop !61

59:                                               ; preds = %11
  call void @llvm.lifetime.end.p0(i64 152, ptr %3) #13
  ret void

60:                                               ; preds = %53
  unreachable
}